target datalayout = "e-m:e-p270:32:32-p271:32:32-p272:64:64-i64:64-i128:128-f80:128-n8:16:32:64-S128"
target triple = "x86_64-pc-linux-gnu"

%"class.tsi::SslSessionLRUCache" = type { %"class.grpc_core::RefCounted", %"class.absl::lts_20240722::Mutex", i64, ptr, ptr, i64, %"class.std::map" }
%"class.grpc_core::RefCounted" = type { %"class.grpc_core::PolymorphicRefCount", %"class.grpc_core::RefCount" }
%"class.grpc_core::PolymorphicRefCount" = type { ptr }
%"class.grpc_core::RefCount" = type { %"struct.std::atomic" }
%"struct.std::atomic" = type { %"struct.std::__atomic_base" }
%"struct.std::__atomic_base" = type { i64 }
%"class.absl::lts_20240722::Mutex" = type { %"struct.std::atomic" }
%"class.std::map" = type { %"class.std::_Rb_tree" }
%"class.std::_Rb_tree" = type { %"struct.std::_Rb_tree<std::__cxx11::basic_string<char>, std::pair<const std::__cxx11::basic_string<char>, tsi::SslSessionLRUCache::Node *>, std::_Select1st<std::pair<const std::__cxx11::basic_string<char>, tsi::SslSessionLRUCache::Node *>>, std::less<std::__cxx11::basic_string<char>>>::_Rb_tree_impl" }
%"struct.std::_Rb_tree<std::__cxx11::basic_string<char>, std::pair<const std::__cxx11::basic_string<char>, tsi::SslSessionLRUCache::Node *>, std::_Select1st<std::pair<const std::__cxx11::basic_string<char>, tsi::SslSessionLRUCache::Node *>>, std::less<std::__cxx11::basic_string<char>>>::_Rb_tree_impl" = type { [8 x i8], %"struct.std::_Rb_tree_header" }
%"struct.std::_Rb_tree_header" = type { %"struct.std::_Rb_tree_node_base", i64 }
%"struct.std::_Rb_tree_node_base" = type { i32, ptr, ptr, ptr }
%"class.tsi::SslSessionLRUCache::Node" = type { %"class.std::__cxx11::basic_string", %"class.std::unique_ptr.5", ptr, ptr }
%"class.std::__cxx11::basic_string" = type { %"struct.std::__cxx11::basic_string<char>::_Alloc_hider", i64, %union.anon }
%"struct.std::__cxx11::basic_string<char>::_Alloc_hider" = type { ptr }
%union.anon = type { i64, [8 x i8] }
%"class.std::unique_ptr.5" = type { %"struct.std::__uniq_ptr_data.6" }
%"struct.std::__uniq_ptr_data.6" = type { %"class.std::__uniq_ptr_impl.7" }
%"class.std::__uniq_ptr_impl.7" = type { %"class.std::tuple.8" }
%"class.std::tuple.8" = type { %"struct.std::_Tuple_impl.9" }
%"struct.std::_Tuple_impl.9" = type { %"struct.std::_Head_base.12" }
%"struct.std::_Head_base.12" = type { ptr }

; Function Attrs: mustprogress nounwind uwtable
define void @_ZN3tsi18SslSessionLRUCache9PushFrontEPNS0_4NodeE(ptr noundef nonnull align 8 dereferenceable(104) %0, ptr noundef %1) #2 align 2 {
  %3 = alloca ptr, align 8
  %4 = alloca ptr, align 8
  store ptr %0, ptr %3, align 8, !tbaa !3
  store ptr %1, ptr %4, align 8, !tbaa !45
  %5 = load ptr, ptr %3, align 8
  %6 = getelementptr inbounds nuw %"class.tsi::SslSessionLRUCache", ptr %5, i32 0, i32 3
  %7 = load ptr, ptr %6, align 8, !tbaa !30
  %8 = icmp eq ptr %7, null
  br i1 %8, label %9, label %18

9:                                                ; preds = %2
  %10 = load ptr, ptr %4, align 8, !tbaa !45
  %11 = getelementptr inbounds nuw %"class.tsi::SslSessionLRUCache", ptr %5, i32 0, i32 3
  store ptr %10, ptr %11, align 8, !tbaa !30
  %12 = load ptr, ptr %4, align 8, !tbaa !45
  %13 = getelementptr inbounds nuw %"class.tsi::SslSessionLRUCache", ptr %5, i32 0, i32 4
  store ptr %12, ptr %13, align 8, !tbaa !31
  %14 = load ptr, ptr %4, align 8, !tbaa !45
  %15 = getelementptr inbounds nuw %"class.tsi::SslSessionLRUCache::Node", ptr %14, i32 0, i32 2
  store ptr null, ptr %15, align 8, !tbaa !46
  %16 = load ptr, ptr %4, align 8, !tbaa !45
  %17 = getelementptr inbounds nuw %"class.tsi::SslSessionLRUCache::Node", ptr %16, i32 0, i32 3
  store ptr null, ptr %17, align 8, !tbaa !71
  br label %32

18:                                               ; preds = %2
  %19 = getelementptr inbounds nuw %"class.tsi::SslSessionLRUCache", ptr %5, i32 0, i32 3
  %20 = load ptr, ptr %19, align 8, !tbaa !30
  %21 = load ptr, ptr %4, align 8, !tbaa !45
  %22 = getelementptr inbounds nuw %"class.tsi::SslSessionLRUCache::Node", ptr %21, i32 0, i32 2
  store ptr %20, ptr %22, align 8, !tbaa !46
  %23 = load ptr, ptr %4, align 8, !tbaa !45
  %24 = load ptr, ptr %4, align 8, !tbaa !45
  %25 = getelementptr inbounds nuw %"class.tsi::SslSessionLRUCache::Node", ptr %24, i32 0, i32 2
  %26 = load ptr, ptr %25, align 8, !tbaa !46
  %27 = getelementptr inbounds nuw %"class.tsi::SslSessionLRUCache::Node", ptr %26, i32 0, i32 3
  store ptr %23, ptr %27, align 8, !tbaa !71
  %28 = load ptr, ptr %4, align 8, !tbaa !45
  %29 = getelementptr inbounds nuw %"class.tsi::SslSessionLRUCache", ptr %5, i32 0, i32 3
  store ptr %28, ptr %29, align 8, !tbaa !30
  %30 = load ptr, ptr %4, align 8, !tbaa !45
  %31 = getelementptr inbounds nuw %"class.tsi::SslSessionLRUCache::Node", ptr %30, i32 0, i32 3
  store ptr null, ptr %31, align 8, !tbaa !71
  br label %32

32:                                               ; preds = %18, %9
  %33 = getelementptr inbounds nuw %"class.tsi::SslSessionLRUCache", ptr %5, i32 0, i32 5
  %34 = load i64, ptr %33, align 8, !tbaa !32
  %35 = add i64 %34, 1
  store i64 %35, ptr %33, align 8, !tbaa !32
  ret void
}