; Function Attrs: mustprogress nofree norecurse nosync nounwind willreturn memory(write, argmem: readwrite, inaccessiblemem: none) uwtable
define void @_ZN3tsi18SslSessionLRUCache9PushFrontEPNS0_4NodeE(ptr noundef nonnull align 8 captures(none) dereferenceable(104) %0, ptr noundef %1) local_unnamed_addr #6 align 2 {
  %3 = getelementptr inbounds nuw i8, ptr %0, i64 32
  %4 = load ptr, ptr %3, align 8, !tbaa !33
  %5 = icmp eq ptr %4, null
  br i1 %5, label %6, label %8

6:                                                ; preds = %2
  %7 = getelementptr inbounds nuw i8, ptr %0, i64 40
  store ptr %1, ptr %7, align 8, !tbaa !58
  br label %10

8:                                                ; preds = %2
  %9 = getelementptr inbounds nuw i8, ptr %4, i64 48
  store ptr %1, ptr %9, align 8, !tbaa !57
  br label %10

10:                                               ; preds = %8, %6
  store ptr %1, ptr %3, align 8, !tbaa !33
  %11 = getelementptr inbounds nuw i8, ptr %1, i64 40
  store ptr %4, ptr %11, align 8, !tbaa !34
  %12 = getelementptr inbounds nuw i8, ptr %1, i64 48
  store ptr null, ptr %12, align 8, !tbaa !57
  %13 = getelementptr inbounds nuw i8, ptr %0, i64 48
  %14 = load i64, ptr %13, align 8, !tbaa !52
  %15 = add i64 %14, 1
  store i64 %15, ptr %13, align 8, !tbaa !52
  ret void
}